; Function Attrs: mustprogress nounwind uwtable
define internal void @_ZN12_GLOBAL__N_113AttrmapRenameD0Ev(ptr noundef nonnull align 8 dereferenceable(72) %0) unnamed_addr #3 align 2 {
  store ptr getelementptr inbounds ({ [5 x ptr] }, ptr @_ZTVN12_GLOBAL__N_113AttrmapRenameE, i64 0, i32 0, i64 2), ptr %0, align 8
  %2 = getelementptr inbounds i8, ptr %0, i64 40
  tail call void @_ZNSt7__cxx1112basic_stringIcSt11char_traitsIcESaIcEED1Ev(ptr noundef nonnull align 8 dereferenceable(32) %2) #21
  %3 = getelementptr inbounds i8, ptr %0, i64 8
  tail call void @_ZNSt7__cxx1112basic_stringIcSt11char_traitsIcESaIcEED1Ev(ptr noundef nonnull align 8 dereferenceable(32) %3) #21
  tail call void @_ZdlPv(ptr noundef nonnull %0) #22
  ret void
}